target datalayout = "e-m:e-p270:32:32-p271:32:32-p272:64:64-i64:64-i128:128-f80:128-n8:16:32:64-S128"
target triple = "x86_64-pc-linux-gnu"

%struct.distsamples = type { i64, i64, i32 }

@.str.68 = private unnamed_addr constant [10 x i8] c"\1B[38;5;0m\00", align 1
@spectrum_palette_size = dso_local global i32 0, align 4
@spectrum_palette = dso_local global ptr null, align 8
@.str.69 = private unnamed_addr constant [13 x i8] c"\1B[48;5;%dm%c\00", align 1
@.str.70 = private unnamed_addr constant [6 x i8] c"\1B[0m\0A\00", align 1
@stdout = external global ptr, align 8

; Function Attrs: nounwind uwtable
define dso_local void @showLatencyDistSamples(ptr noundef %0, i64 noundef %1) #0 {
  %3 = alloca ptr, align 8
  %4 = alloca i64, align 8
  %5 = alloca i32, align 4
  %6 = alloca i32, align 4
  %7 = alloca i32, align 4
  %8 = alloca i32, align 4
  store ptr %0, ptr %3, align 8, !tbaa !219
  store i64 %1, ptr %4, align 8, !tbaa !221
  call void @llvm.lifetime.start.p0(i64 4, ptr %5) #15
  %9 = call i32 (ptr, ...) @printf(ptr noundef @.str.68)
  store i32 0, ptr %5, align 4, !tbaa !10
  br label %10

10:                                               ; preds = %57, %2
  call void @llvm.lifetime.start.p0(i64 4, ptr %6) #15
  %11 = load ptr, ptr %3, align 8, !tbaa !219
  %12 = load i32, ptr %5, align 4, !tbaa !10
  %13 = sext i32 %12 to i64
  %14 = getelementptr inbounds %struct.distsamples, ptr %11, i64 %13
  %15 = getelementptr inbounds nuw %struct.distsamples, ptr %14, i32 0, i32 1
  %16 = load i64, ptr %15, align 8, !tbaa !222
  %17 = sitofp i64 %16 to double
  %18 = load i64, ptr %4, align 8, !tbaa !221
  %19 = sitofp i64 %18 to double
  %20 = fdiv double %17, %19
  %21 = load i32, ptr @spectrum_palette_size, align 4, !tbaa !10
  %22 = sub nsw i32 %21, 1
  %23 = sitofp i32 %22 to double
  %24 = fmul double %20, %23
  %25 = call double @llvm.ceil.f64(double %24)
  %26 = fptosi double %25 to i32
  store i32 %26, ptr %6, align 4, !tbaa !10
  call void @llvm.lifetime.start.p0(i64 4, ptr %7) #15
  %27 = load ptr, ptr @spectrum_palette, align 8, !tbaa !224
  %28 = load i32, ptr %6, align 4, !tbaa !10
  %29 = sext i32 %28 to i64
  %30 = getelementptr inbounds i32, ptr %27, i64 %29
  %31 = load i32, ptr %30, align 4, !tbaa !10
  store i32 %31, ptr %7, align 4, !tbaa !10
  %32 = load i32, ptr %7, align 4, !tbaa !10
  %33 = load ptr, ptr %3, align 8, !tbaa !219
  %34 = load i32, ptr %5, align 4, !tbaa !10
  %35 = sext i32 %34 to i64
  %36 = getelementptr inbounds %struct.distsamples, ptr %33, i64 %35
  %37 = getelementptr inbounds nuw %struct.distsamples, ptr %36, i32 0, i32 2
  %38 = load i32, ptr %37, align 8, !tbaa !226
  %39 = call i32 (ptr, ...) @printf(ptr noundef @.str.69, i32 noundef %32, i32 noundef %38)
  %40 = load ptr, ptr %3, align 8, !tbaa !219
  %41 = load i32, ptr %5, align 4, !tbaa !10
  %42 = sext i32 %41 to i64
  %43 = getelementptr inbounds %struct.distsamples, ptr %40, i64 %42
  %44 = getelementptr inbounds nuw %struct.distsamples, ptr %43, i32 0, i32 1
  store i64 0, ptr %44, align 8, !tbaa !222
  %45 = load ptr, ptr %3, align 8, !tbaa !219
  %46 = load i32, ptr %5, align 4, !tbaa !10
  %47 = sext i32 %46 to i64
  %48 = getelementptr inbounds %struct.distsamples, ptr %45, i64 %47
  %49 = getelementptr inbounds nuw %struct.distsamples, ptr %48, i32 0, i32 0
  %50 = load i64, ptr %49, align 8, !tbaa !227
  %51 = icmp eq i64 %50, 0
  br i1 %51, label %52, label %53

52:                                               ; preds = %10
  store i32 2, ptr %8, align 4
  br label %54

53:                                               ; preds = %10
  store i32 0, ptr %8, align 4
  br label %54

54:                                               ; preds = %53, %52
  call void @llvm.lifetime.end.p0(i64 4, ptr %7) #15
  call void @llvm.lifetime.end.p0(i64 4, ptr %6) #15
  %55 = load i32, ptr %8, align 4
  switch i32 %55, label %64 [
    i32 0, label %56
    i32 2, label %60
  ]

56:                                               ; preds = %54
  br label %57

57:                                               ; preds = %56
  %58 = load i32, ptr %5, align 4, !tbaa !10
  %59 = add nsw i32 %58, 1
  store i32 %59, ptr %5, align 4, !tbaa !10
  br label %10

60:                                               ; preds = %54
  %61 = call i32 (ptr, ...) @printf(ptr noundef @.str.70)
  %62 = load ptr, ptr @stdout, align 8, !tbaa !12
  %63 = call i32 @fflush(ptr noundef %62)
  call void @llvm.lifetime.end.p0(i64 4, ptr %5) #15
  ret void

64:                                               ; preds = %54
  unreachable
}