; Function Attrs: nofree nounwind uwtable
define dso_local void @showLatencyDistSamples(ptr noundef captures(none) %0, i64 noundef %1) local_unnamed_addr #14 {
  %3 = tail call i32 (ptr, ...) @printf(ptr noundef nonnull dereferenceable(1) @.str.68)
  %4 = sitofp i64 %1 to double
  br label %5

5:                                                ; preds = %5, %2
  %indvars.iv = phi i64 [ %indvars.iv.next, %5 ], [ 0, %2 ]
  %6 = getelementptr inbounds nuw %struct.distsamples, ptr %0, i64 %indvars.iv
  %7 = getelementptr inbounds nuw i8, ptr %6, i64 8
  %8 = load i64, ptr %7, align 8, !tbaa !198
  %9 = sitofp i64 %8 to double
  %10 = fdiv double %9, %4
  %11 = load i32, ptr @spectrum_palette_size, align 4, !tbaa !22
  %12 = add nsw i32 %11, -1
  %13 = sitofp i32 %12 to double
  %14 = fmul double %10, %13
  %15 = tail call double @llvm.ceil.f64(double %14)
  %16 = fptosi double %15 to i32
  %17 = load ptr, ptr @spectrum_palette, align 8, !tbaa !200
  %18 = sext i32 %16 to i64
  %19 = getelementptr inbounds i32, ptr %17, i64 %18
  %20 = load i32, ptr %19, align 4, !tbaa !22
  %21 = getelementptr inbounds nuw i8, ptr %6, i64 16
  %22 = load i32, ptr %21, align 8, !tbaa !202
  %23 = tail call i32 (ptr, ...) @printf(ptr noundef nonnull dereferenceable(1) @.str.69, i32 noundef %20, i32 noundef %22)
  store i64 0, ptr %7, align 8, !tbaa !198
  %24 = load i64, ptr %6, align 8, !tbaa !203
  %25 = icmp eq i64 %24, 0
  %indvars.iv.next = add nuw nsw i64 %indvars.iv, 1
  br i1 %25, label %26, label %5

26:                                               ; preds = %5
  %puts = tail call i32 @puts(ptr nonnull dereferenceable(1) @str.14)
  %27 = load ptr, ptr @stdout, align 8, !tbaa !5
  %28 = tail call i32 @fflush(ptr noundef %27)
  ret void
}